 **INTERNAL DEVELOPMENT** Open Watcom Linker Version 1.5beta1 Limited Availability
Portions Copyright (c) 1985-2002 Sybase, Inc. All Rights Reserved.
Created on:       11/02/09 22:28:08
Executable Image: merge.exe
creating an OS/2 EMX executable


                        +------------+
                        |   Groups   |
                        +------------+

Group                           Address              Size
=====                           =======              ====

CGROUP                          0001:00000000        0000b120
DGROUP                          0002:00000000        00000480



                        +--------------+
                        |   Segments   |
                        +--------------+

Segment                Class          Group          Address         Size
=======                =====          =====          =======         ====

TEXT32                 CODE           CGROUP         0001:00000000   0000b120
________TEXT           CODE           CGROUP         0001:0000b120   00000000
DATA32                 DATA           DGROUP         0002:00000000   000001f8
SET1__os2dll           DATA           DGROUP         0002:000001f8   00000004
SET2__os2dll           DATA           DGROUP         0002:000001fc   00000000
SET3__os2dll           DATA           DGROUP         0002:000001fc   00000004
SET1___CTOR_LIST__     DATA           DGROUP         0002:00000200   00000004
SET2___CTOR_LIST__     DATA           DGROUP         0002:00000204   00000000
SET3___CTOR_LIST__     DATA           DGROUP         0002:00000204   00000004
SET1___DTOR_LIST__     DATA           DGROUP         0002:00000208   00000004
SET2___DTOR_LIST__     DATA           DGROUP         0002:0000020c   00000000
SET3___DTOR_LIST__     DATA           DGROUP         0002:0000020c   00000004
SET1___crtinit1__      DATA           DGROUP         0002:00000210   00000004
SET2___crtinit1__      DATA           DGROUP         0002:00000214   00000000
SET3___crtinit1__      DATA           DGROUP         0002:00000214   00000004
SET1___crtexit1__      DATA           DGROUP         0002:00000218   00000004
SET2___crtexit1__      DATA           DGROUP         0002:0000021c   00000000
SET3___crtexit1__      DATA           DGROUP         0002:0000021c   00000004
SET1___eh_frame__      DATA           DGROUP         0002:00000220   00000004
SET2___eh_frame__      DATA           DGROUP         0002:00000224   00000008
SET3___eh_frame__      DATA           DGROUP         0002:0000022c   00000004
SET1___eh_init__       DATA           DGROUP         0002:00000230   00000004
SET2___eh_init__       DATA           DGROUP         0002:00000234   00000004
SET3___eh_init__       DATA           DGROUP         0002:00000238   00000004
SET1___eh_term__       DATA           DGROUP         0002:0000023c   00000004
SET2___eh_term__       DATA           DGROUP         0002:00000240   00000004
SET3___eh_term__       DATA           DGROUP         0002:00000244   00000004
SET1___fork_parent1__  DATA           DGROUP         0002:00000248   00000004
SET2___fork_parent1__  DATA           DGROUP         0002:0000024c   00000000
SET3___fork_parent1__  DATA           DGROUP         0002:0000024c   00000004
SET1___fork_child1__   DATA           DGROUP         0002:00000250   00000004
SET2___fork_child1__   DATA           DGROUP         0002:00000254   00000000
SET3___fork_child1__   DATA           DGROUP         0002:00000254   00000004
________DATA           DATA           DGROUP         0002:00000260   00000000
BSS32                  BSS            DGROUP         0002:00000260   00000220
c_common               BSS            DGROUP         0002:00000480   00000000
________BSS            BSS            DGROUP         0002:00000480   00000000
STACK                  STACK          AUTO           0003:00000000   00100000


                        +----------------+
                        |   Memory Map   |
                        +----------------+

* = unreferenced symbol
+ = symbol only referenced locally

Address        Symbol
=======        ======

Module: U:\usr\lib\crt0wild.obj({standard input})
0001:00000000* __text
0002:00000000* __data
0002:00000000* ___data_start
0002:00000260* ___bss_start
0002:000001f8+ __os2dll
0002:00000200  ___CTOR_LIST__
0002:00000208  ___DTOR_LIST__
0002:00000210* ___crtinit1__
0002:00000218* ___crtexit1__
0002:00000220  ___eh_frame__
0002:00000230  ___eh_init__
0002:0000023c  ___eh_term__
0002:00000248+ ___fork_parent1__
0002:00000250+ ___fork_child1__
Module: u:/tmp\ldconv_merge_o_1f1d4d5306e71416e0.obj(merge.c)
0001:00000084* _new_list
0001:00000184* _vmerge2
0001:00000890* _test_vmerge
0001:00000eb8* _test_decode_speed
0001:000011a8* _test_psort
0001:000015c8  _main
0002:000000cc* _nrep
0002:00000050* _a1
0002:00000070* _a2
0002:000000a0* _a3
0001:000015c8* main
Module: U:\usr\lib\libend.lib(src/libend/386/endlink386.asm)
0002:00000480  _end
0002:00000260  _edata
Module: U:\usr\lib\libend.lib(src/libend/386/end.asm)
0001:0000b120* _etext
0001:0000b120* __etext
0000:00000000  WEAK$ZERO
0002:00000480  __end
0002:00000260  __edata
Module: U:\tmp\ldconv_asvtools_a_1f1d4d5306e7148058.lib(xfunc.obj)
0001:000019ac  _xcreate
0001:00001a38  _xopen
0001:00001ad0* _xfopen
0001:00001b78* _xfclose
0001:00001be8* _xfwrite
0001:00001c5c* _xfread
0001:00001cd4  _xwrite
0001:00001d20* _xwrite_str
0001:00001d8c* _xwrite_str_array
0001:00001df4  _xread
0001:00001e68  _xmalloc
0001:00001ea0* _xread_str
0001:00001ef4* _xread_str_array
0001:00001f58* _xfree
0001:00001f8c  _xrealloc
0001:00002014* _xstrdup
0001:0000204c* _xnstrdup
0001:0000208c  _xunlink
0001:000020f0* _yunlink
0001:00002144* _xlseek
0001:000021b4* _xmmap
0001:000021cc* _xmunmap
0001:000021d4* _chunk_new
0001:00002264* _chunk_alloc
0001:00002358* _chunk_put
0001:000023b4* _chunk_free
0001:000023f4* _membuf_create
0001:0000251c* _membuf_close
0001:000025a8* _membuf_put
0001:00002718* _membuf_write
0001:000027bc* _membuf_printf
0001:00002884* _membuf_accumulate
Module: U:\tmp\ldconv_asvtools_a_1f1d4d5306e7148058.lib(fsort.obj)
0001:00002990* _cmp_str
0001:000029ac* _cmp_strlen
0001:000029fc  _cmp_integers
0001:00002a0c  _cmp_doubles
0001:00002a44* _cmp_absintegers
0001:00002a74  _cmp_unsigned_integers
0001:00002b04* _fsort_old
0001:00002f5c* _fsort
0001:00003410* _funiq
0001:00003544  _merge
0001:0000399c  _uniq
0001:00003a24* _uniq2
0001:00003be4  _psort
0001:00003d54* _pusort
0001:00003edc  _bracket
0001:00004078* _linebuf_init
0001:00004128* _linebuf_nextline
0001:000042a0* _linebuf_close
0001:00004508* _sortfile
0001:00005250* _heap_siftup
0001:000052b0* _heap_siftdown
0001:00005368* _accumulate
0001:00005428  _psort1
Module: U:\tmp\ldconv_asvtools_a_1f1d4d5306e7148058.lib(base64.obj)
0001:00005500* _base64_encode
0001:000056a0* _base64_decode
0001:00005848* _hex2dec
0001:00005888* _dec2hex
0001:000058ac* _bin2hex
0001:00005904* _hex2bin
0001:000059a4* _hexify
0001:00005a44* _hexify2
0001:00005ae0* _dehexify
0001:00005ba4  _vby_encode
0001:00005be0* _vby_encode64
0001:00005c30  _vby_decode
0001:00005c9c* _vby_decode64
0001:00005de0* _vby_skip
0001:00005e04* _vby_fread
0001:00005eb8* _vby_fwrite
0001:00005f4c* _vby_fscan
0001:00005fd0* _vby_len
0001:00005ff4* _vby_encode_s
0001:00006060* _vby_decode_s
Module: U:\tmp\ldconv_asvtools_a_1f1d4d5306e7148058.lib(misc.obj)
0001:000060e0* _cmp_range
0001:000060f0  _clock1
0001:00006124* _sleep1
0001:00006154  _error1
0001:00006184* _error2
0001:000061b0* _error3
0001:000061f4  _warning1
0001:00006218* _warning2
0001:0000624c* _warning3
0001:00006298* _debug_tools
0001:000062d4  _snprintf1
0001:000062fc  _vsnprintf1
0001:00006308* _perm_t2b
0001:000064ac* _perm_b2t
0001:0000654c* _insert_commas
0001:000066d0* _insert_commas2
0001:000066f0* _insert_commas3
0001:00006c44  _insert_commas4
0001:00006c6c* _insert_commas5
0001:000071a8* _insert_commas6
0001:000071d0* _chunk_add
0001:0000724c* _is_unix_file_entry
0001:0000728c* _binchars
0001:0000732c* _nontextchars
0001:00007408* _print_binary
0001:00007478* _fprint_bits
0001:00007530* _ranges_intersect
0001:000078a4* _ranges_merge
0001:000079c4* _merge_ranges
0001:00007a30* _ipow
0001:00007a74* _valid_dataline
0001:00007aac* _read_datafile
0001:00007dfc* _read_column
0001:00007efc* _read_n_columns
0001:0000806c* _read_two_columns
0001:000080e8* _read_one_column
0001:0000818c* _drop_datafile
0001:00008250* _interpolate_l
0002:000002e0* _clock1_call_counter
0002:000002e4* _tools_debug
Module: U:\tmp\ldconv_gcc452_a_1f1d4d5306e71514c8.lib(__main.obj)
0001:00008410* ___do_global_dtors
0001:0000841b* ___do_global_ctors
0001:00008433  ___main
Module: U:\tmp\ldconv_asvtools_a_1f1d4d5306e7148058.lib(file_ops.obj)
0001:00008460* _make_subtree
0001:00008544* _load_stdin
0001:00008620* _text2lines
0001:000086bc* _flongprint
0001:000087a0* _longprint
0001:00008870* _print_file
0001:000088dc  _file_length
0001:00008954* _load_file
0001:00008a08* _load_textfile
0001:00008a68* _is_textfile
0001:00008b7c* _dump_file
0001:00008bdc* _copy_file
0001:00008c84* _isindexfile
0001:00008d64* _openlock
0001:00008e0c  _copy_bytes
0001:00008f48* _f_length
Module: U:\tmp\ldconv_asvtools_a_1f1d4d5306e7148058.lib(str_base.obj)
0001:00008f80* _str_headcmp
0001:00008fdc  _stricmp1
0001:00009064* _strnicmp1
0001:0000911c  _str_tailcmp
0001:00009184  _str_tailcmpi
0001:000091e0  _str_lastspn
0001:00009234* _str_stristr
0001:00009304* _str_imatch
0001:0000934c* _str_index1
0001:000093ac* _str_copy
0001:000093dc  _str_delete
0001:00009420* _str_insert
0001:0000946c* _str_compress_spaces
0001:000094dc* _str_replace
0001:00009638* _remove_dots
0001:000096a8* _remove_whitespace
0001:00009798* _str_sep1
0001:000097ec* _str_copy_worker
0001:0000981c  _str_reduce
0001:000098c0* _str_cats
0001:0000994c* _str_strdup1
0001:0000998c  _str_strip
0001:000099dc* _str_strip2
0001:00009a88  _str_numchars
0001:00009aac* _str_numstr
0001:00009af0  _str_translate
0001:00009b2c* _str_sanify
0001:00009cb8* _str_join
0001:00009d14* _str_append
0001:00009da0* _str_mjoin
0001:00009e54* _str_msjoin
0001:00009f2c* _str_sjoin
0001:00009f88* _str_refine_buffer
0001:00009fdc* _str_pathdcmp
0001:0000a0b8* _str_lower
0001:0000a0d8* _tolower1
0001:0000a0e8* _sanify_pathname
0001:0000a264* _strtoq1
0001:0000a588  _str_parseline
0001:0000a658* _str_casestr
0001:0000a664* _str_cutoff
0001:0000a6cc  _str_words
0001:0000aad0* _str_split
Module: U:\tmp\ldconv_gcc452_a_1f1d4d5306e71514c8.lib(emx-ctordtor.obj)
0001:0000ac50  ___ctordtorInit
0001:0000ac82  ___ctordtorTerm
Module: U:\tmp\ldconv_asvtools_a_1f1d4d5306e7148058.lib(str_shorten.obj)
0001:0000acd0* _str_isvowel
0001:0000ad3c  _str_try_shorten
0001:0000ae38* _str_fatsafe
0001:0000ae68* _str_shorten
Module: U:\tmp\ldconv_gcc452_a_1f1d4d5306e71514c8.lib(emx-eh.obj)
0001:0000b0b0  ___ehInit
0001:0000b0e5* ___ehTerm


                        +----------------------+
                        |   Imported Symbols   |
                        +----------------------+

Symbol                              Module
======                              ======

___libc_ForkRegisterModule          libc063
___init_app                         libc063
__wildcard                          libc063
__CRT_init                          libc063
__atfork_callback                   libc063
_optind                             libc063
_opterr                             libc063
_optarg                             libc063
__std_exit                          libc063
__errno                             libc063
__alloca                            gcc452
__std_random                        libc063
__std_qsort                         libc063
___libc_GLocaleCtype                libc063
__std_free                          libc063
__std_printf                        libc063
___stderrp                          libc063
___udivdi3                          gcc452
___umoddi3                          gcc452
___stdoutp                          libc063
__std_puts                          libc063
__std_putchar                       libc063
__std_getopt                        libc063
__std_atoi                          libc063
__std_open                          libc063
__std_fopen                         libc063
__std_strerror                      libc063
__std_fclose                        libc063
__std_fwrite                        libc063
__std_fread                         libc063
__std_write                         libc063
__std_read                          libc063
__std_malloc                        libc063
__std_realloc                       libc063
__std_strdup                        libc063
__std_unlink                        libc063
__std_lseek                         libc063
__std_vsnprintf                     libc063
__std_strcmp                        libc063
__std_getpid                        libc063
__std_close                         libc063
__std_memmove                       libc063
__std_fseeko                        libc063
__std_snprintf                      libc063
__std_rename                        libc063
__std_fileno                        libc063
___stdinp                           libc063
__std_strchr                        libc063
_strcasestr                         libc063
__std_fseek                         libc063
__std_gettimeofday                  libc063
__std_vfprintf                      libc063
__std_fflush                        libc063
__std_strcpy                        libc063
__std_fputc                         libc063
__std_fprintf                       libc063
__std_strspn                        libc063
__std_fgets                         libc063
__std_rewind                        libc063
__std_atof                          libc063
___ctordtorInit1                    libc063
___ctordtorTerm1                    libc063
__std_atexit                        libc063
__std_access                        libc063
__std_mkdir                         libc063
__std_fputs                         libc063
__std_flock                         libc063
__std_stat                          libc063
__std_strstr                        libc063
__std_strncpy                       libc063
__std_strcat                        libc063
__std_strrchr                       libc063
___register_frame_table             gcc452
___deregister_frame                 gcc452


                        +--------------------+
                        |   Libraries Used   |
                        +--------------------+

U:\tmp\ldconv_asvtools_a_1f1d4d5306e7148058.lib
U:\tmp\ldconv_gcc452_a_1f1d4d5306e71514c8.lib
U:\usr\lib\libc_alias.lib
U:\usr\local452\lib\libc_dll.lib
U:\usr\lib\libend.lib


                        +-----------------------+
                        |   Linker Statistics   |
                        +-----------------------+

Stack size:  00100000 (1048576.)
Memory size:  0010b5a0 (1095072.)
Entry point address: 0001:00000000
Link time: 00:00.28
